target datalayout = "e-m:e-p270:32:32-p271:32:32-p272:64:64-i64:64-i128:128-f80:128-n8:16:32:64-S128"
target triple = "x86_64-pc-linux-gnu"

%struct.hb_font_funcs_t = type { %struct.hb_object_header_t, ptr, ptr, %"union.hb_font_funcs_t::get_t" }
%struct.hb_object_header_t = type { %struct.hb_reference_count_t, %struct.hb_atomic_int_t, %struct.hb_atomic_ptr_t }
%struct.hb_reference_count_t = type { %struct.hb_atomic_int_t }
%struct.hb_atomic_int_t = type { i32 }
%struct.hb_atomic_ptr_t = type { ptr }
%"union.hb_font_funcs_t::get_t" = type { %"struct.hb_font_funcs_t::get_t::get_funcs_t" }
%"struct.hb_font_funcs_t::get_t::get_funcs_t" = type { ptr, ptr, ptr, ptr, ptr, ptr, ptr, ptr, ptr, ptr, ptr, ptr, ptr, ptr, ptr, ptr, ptr, ptr, ptr }
%struct.hb_atomic_ptr_t.1 = type { ptr }
%struct.hb_atomic_ptr_t.5 = type { ptr }
%struct.hb_font_t = type { %struct.hb_object_header_t, i32, i32, ptr, ptr, i32, i32, float, float, i8, i32, i32, float, float, float, float, i64, i64, i32, i32, float, i32, i32, ptr, ptr, ptr, ptr, ptr, %struct.hb_shaper_object_dataset_t }
%struct.hb_shaper_object_dataset_t = type { ptr, %struct.hb_shaper_lazy_loader_t, %struct.hb_shaper_lazy_loader_t.2 }
%struct.hb_shaper_lazy_loader_t = type { %struct.hb_lazy_loader_t }
%struct.hb_lazy_loader_t = type { %struct.hb_atomic_ptr_t.1 }
%struct.hb_shaper_lazy_loader_t.2 = type { %struct.hb_lazy_loader_t.3 }
%struct.hb_lazy_loader_t.3 = type { %struct.hb_atomic_ptr_t.5 }
%struct.anon.0 = type { ptr, ptr, ptr, ptr, ptr, ptr, ptr, ptr, ptr, ptr, ptr, ptr, ptr, ptr, ptr, ptr, ptr, ptr, ptr }

; Function Attrs: mustprogress nounwind uwtable
define linkonce_odr hidden noundef i32 @_ZN9hb_font_t23parent_scale_x_distanceEi(ptr noundef nonnull align 8 dereferenceable(192) %0, i32 noundef %1) #1 comdat align 2 {
  %3 = alloca i32, align 4
  %4 = alloca ptr, align 8
  %5 = alloca i32, align 4
  store ptr %0, ptr %4, align 8
  store i32 %1, ptr %5, align 4
  %6 = load ptr, ptr %4, align 8
  %7 = getelementptr inbounds %struct.hb_font_t, ptr %6, i32 0, i32 3
  %8 = load ptr, ptr %7, align 8
  %9 = icmp ne ptr %8, null
  br i1 %9, label %10, label %32

10:                                               ; preds = %2
  %11 = getelementptr inbounds %struct.hb_font_t, ptr %6, i32 0, i32 3
  %12 = load ptr, ptr %11, align 8
  %13 = getelementptr inbounds %struct.hb_font_t, ptr %12, i32 0, i32 5
  %14 = load i32, ptr %13, align 8
  %15 = getelementptr inbounds %struct.hb_font_t, ptr %6, i32 0, i32 5
  %16 = load i32, ptr %15, align 8
  %17 = icmp ne i32 %14, %16
  br i1 %17, label %18, label %32

18:                                               ; preds = %10
  %19 = load i32, ptr %5, align 4
  %20 = sext i32 %19 to i64
  %21 = getelementptr inbounds %struct.hb_font_t, ptr %6, i32 0, i32 5
  %22 = load i32, ptr %21, align 8
  %23 = sext i32 %22 to i64
  %24 = mul nsw i64 %20, %23
  %25 = getelementptr inbounds %struct.hb_font_t, ptr %6, i32 0, i32 3
  %26 = load ptr, ptr %25, align 8
  %27 = getelementptr inbounds %struct.hb_font_t, ptr %26, i32 0, i32 5
  %28 = load i32, ptr %27, align 8
  %29 = sext i32 %28 to i64
  %30 = sdiv i64 %24, %29
  %31 = trunc i64 %30 to i32
  store i32 %31, ptr %3, align 4
  br label %34

32:                                               ; preds = %10, %2
  %33 = load i32, ptr %5, align 4
  store i32 %33, ptr %3, align 4
  br label %34

34:                                               ; preds = %32, %18
  %35 = load i32, ptr %3, align 4
  ret i32 %35
}

; Function Attrs: mustprogress uwtable
define linkonce_odr hidden noundef i32 @_ZN9hb_font_t19get_glyph_h_kerningEjj(ptr noundef nonnull align 8 dereferenceable(192) %0, i32 noundef %1, i32 noundef %2) #0 comdat align 2 {
  %4 = alloca ptr, align 8
  %5 = alloca i32, align 4
  %6 = alloca i32, align 4
  store ptr %0, ptr %4, align 8
  store i32 %1, ptr %5, align 4
  store i32 %2, ptr %6, align 4
  %7 = load ptr, ptr %4, align 8
  %8 = getelementptr inbounds %struct.hb_font_t, ptr %7, i32 0, i32 25
  %9 = load ptr, ptr %8, align 8
  %10 = getelementptr inbounds %struct.hb_font_funcs_t, ptr %9, i32 0, i32 3
  %11 = getelementptr inbounds %"struct.hb_font_funcs_t::get_t::get_funcs_t", ptr %10, i32 0, i32 11
  %12 = load ptr, ptr %11, align 8
  %13 = getelementptr inbounds %struct.hb_font_t, ptr %7, i32 0, i32 26
  %14 = load ptr, ptr %13, align 8
  %15 = load i32, ptr %5, align 4
  %16 = load i32, ptr %6, align 4
  %17 = getelementptr inbounds %struct.hb_font_t, ptr %7, i32 0, i32 25
  %18 = load ptr, ptr %17, align 8
  %19 = getelementptr inbounds %struct.hb_font_funcs_t, ptr %18, i32 0, i32 1
  %20 = load ptr, ptr %19, align 8
  %21 = icmp ne ptr %20, null
  br i1 %21, label %23, label %22

22:                                               ; preds = %3
  br label %30

23:                                               ; preds = %3
  %24 = getelementptr inbounds %struct.hb_font_t, ptr %7, i32 0, i32 25
  %25 = load ptr, ptr %24, align 8
  %26 = getelementptr inbounds %struct.hb_font_funcs_t, ptr %25, i32 0, i32 1
  %27 = load ptr, ptr %26, align 8
  %28 = getelementptr inbounds %struct.anon.0, ptr %27, i32 0, i32 11
  %29 = load ptr, ptr %28, align 8
  br label %30

30:                                               ; preds = %23, %22
  %31 = phi ptr [ null, %22 ], [ %29, %23 ]
  %32 = call noundef i32 %12(ptr noundef %7, ptr noundef %14, i32 noundef %15, i32 noundef %16, ptr noundef %31)
  ret i32 %32
}

; Function Attrs: mustprogress uwtable
define internal noundef i32 @_ZL35hb_font_get_glyph_h_kerning_defaultP9hb_font_tPvjjS1_(ptr noundef %0, ptr noundef %1, i32 noundef %2, i32 noundef %3, ptr noundef %4) #0 {
  %6 = alloca ptr, align 8
  %7 = alloca ptr, align 8
  %8 = alloca i32, align 4
  %9 = alloca i32, align 4
  %10 = alloca ptr, align 8
  store ptr %0, ptr %6, align 8
  store ptr %1, ptr %7, align 8
  store i32 %2, ptr %8, align 4
  store i32 %3, ptr %9, align 4
  store ptr %4, ptr %10, align 8
  %11 = load ptr, ptr %6, align 8
  %12 = load ptr, ptr %6, align 8
  %13 = getelementptr inbounds %struct.hb_font_t, ptr %12, i32 0, i32 3
  %14 = load ptr, ptr %13, align 8
  %15 = load i32, ptr %8, align 4
  %16 = load i32, ptr %9, align 4
  %17 = call noundef i32 @_ZN9hb_font_t19get_glyph_h_kerningEjj(ptr noundef nonnull align 8 dereferenceable(192) %14, i32 noundef %15, i32 noundef %16)
  %18 = call noundef i32 @_ZN9hb_font_t23parent_scale_x_distanceEi(ptr noundef nonnull align 8 dereferenceable(192) %11, i32 noundef %17)
  ret i32 %18
}