; Function Attrs: mustprogress uwtable
define internal noundef i32 @_ZL35hb_font_get_glyph_h_kerning_defaultP9hb_font_tPvjjS1_(ptr nocapture noundef readonly %0, ptr nocapture readnone %1, i32 noundef %2, i32 noundef %3, ptr nocapture readnone %4) #1 {
  %6 = getelementptr inbounds i8, ptr %0, i64 24
  %7 = load ptr, ptr %6, align 8
  %8 = getelementptr inbounds i8, ptr %7, i64 144
  %9 = load ptr, ptr %8, align 8
  %10 = getelementptr inbounds i8, ptr %9, i64 120
  %11 = load ptr, ptr %10, align 8
  %12 = getelementptr inbounds i8, ptr %7, i64 152
  %13 = load ptr, ptr %12, align 8
  %14 = getelementptr inbounds i8, ptr %9, i64 16
  %15 = load ptr, ptr %14, align 8
  %.not.i = icmp eq ptr %15, null
  br i1 %.not.i, label %_ZN9hb_font_t19get_glyph_h_kerningEjj.exit, label %16

16:                                               ; preds = %5
  %17 = getelementptr inbounds i8, ptr %15, i64 88
  %18 = load ptr, ptr %17, align 8
  br label %_ZN9hb_font_t19get_glyph_h_kerningEjj.exit

_ZN9hb_font_t19get_glyph_h_kerningEjj.exit:       ; preds = %5, %16
  %19 = phi ptr [ %18, %16 ], [ null, %5 ]
  %20 = tail call noundef i32 %11(ptr noundef nonnull %7, ptr noundef %13, i32 noundef %2, i32 noundef %3, ptr noundef %19)
  %21 = load ptr, ptr %6, align 8
  %.not.i3 = icmp eq ptr %21, null
  br i1 %.not.i3, label %_ZN9hb_font_t23parent_scale_x_distanceEi.exit, label %22

22:                                               ; preds = %_ZN9hb_font_t19get_glyph_h_kerningEjj.exit
  %23 = getelementptr inbounds i8, ptr %21, i64 40
  %24 = load i32, ptr %23, align 8
  %25 = getelementptr inbounds i8, ptr %0, i64 40
  %26 = load i32, ptr %25, align 8
  %.not6.i = icmp eq i32 %24, %26
  br i1 %.not6.i, label %_ZN9hb_font_t23parent_scale_x_distanceEi.exit, label %27

27:                                               ; preds = %22
  %28 = sext i32 %20 to i64
  %29 = sext i32 %26 to i64
  %30 = mul nsw i64 %29, %28
  %31 = sext i32 %24 to i64
  %32 = sdiv i64 %30, %31
  %33 = trunc i64 %32 to i32
  br label %_ZN9hb_font_t23parent_scale_x_distanceEi.exit

_ZN9hb_font_t23parent_scale_x_distanceEi.exit:    ; preds = %_ZN9hb_font_t19get_glyph_h_kerningEjj.exit, %22, %27
  %.0.i = phi i32 [ %33, %27 ], [ %20, %22 ], [ %20, %_ZN9hb_font_t19get_glyph_h_kerningEjj.exit ]
  ret i32 %.0.i
}